target datalayout = "e-m:e-p270:32:32-p271:32:32-p272:64:64-i64:64-i128:128-f80:128-n8:16:32:64-S128"
target triple = "x86_64-pc-linux-gnu"

%struct.avifDecoder = type { i32, i32, i32, i32, i32, i32, i32, i32, i32, i32, i32, ptr, i32, i32, i32, %struct.avifImageTiming, i64, double, i64, i32, i32, %struct.avifIOStats, %struct.avifDiagnostics, ptr, ptr, i32 }
%struct.avifImageTiming = type { i64, double, i64, double, i64 }
%struct.avifIOStats = type { i64, i64 }
%struct.avifDiagnostics = type { [256 x i8] }

; Function Attrs: nounwind uwtable
define hidden i32 @avifDecoderRead(ptr noundef %0, ptr noundef %1) #0 {
  %3 = alloca i32, align 4
  %4 = alloca ptr, align 8
  %5 = alloca ptr, align 8
  %6 = alloca i32, align 4
  store ptr %0, ptr %4, align 8
  store ptr %1, ptr %5, align 8
  %7 = load ptr, ptr %4, align 8
  %8 = call i32 @avifDecoderParse(ptr noundef %7)
  store i32 %8, ptr %6, align 4
  %9 = load i32, ptr %6, align 4
  %10 = icmp ne i32 %9, 0
  br i1 %10, label %11, label %13

11:                                               ; preds = %2
  %12 = load i32, ptr %6, align 4
  store i32 %12, ptr %3, align 4
  br label %26

13:                                               ; preds = %2
  %14 = load ptr, ptr %4, align 8
  %15 = call i32 @avifDecoderNextImage(ptr noundef %14)
  store i32 %15, ptr %6, align 4
  %16 = load i32, ptr %6, align 4
  %17 = icmp ne i32 %16, 0
  br i1 %17, label %18, label %20

18:                                               ; preds = %13
  %19 = load i32, ptr %6, align 4
  store i32 %19, ptr %3, align 4
  br label %26

20:                                               ; preds = %13
  %21 = load ptr, ptr %5, align 8
  %22 = load ptr, ptr %4, align 8
  %23 = getelementptr inbounds nuw %struct.avifDecoder, ptr %22, i32 0, i32 11
  %24 = load ptr, ptr %23, align 8
  %25 = call i32 @avifImageCopy(ptr noundef %21, ptr noundef %24, i32 noundef 255)
  store i32 %25, ptr %3, align 4
  br label %26

26:                                               ; preds = %20, %18, %11
  %27 = load i32, ptr %3, align 4
  ret i32 %27
}