; Function Attrs: nounwind uwtable
define hidden i32 @avifDecoderRead(ptr noundef %0, ptr noundef %1) local_unnamed_addr #0 {
  %3 = tail call i32 @avifDecoderParse(ptr noundef %0)
  %.not = icmp eq i32 %3, 0
  br i1 %.not, label %4, label %10

4:                                                ; preds = %2
  %5 = tail call i32 @avifDecoderNextImage(ptr noundef %0)
  %.not10 = icmp eq i32 %5, 0
  br i1 %.not10, label %6, label %10

6:                                                ; preds = %4
  %7 = getelementptr inbounds nuw i8, ptr %0, i64 48
  %8 = load ptr, ptr %7, align 8
  %9 = tail call i32 @avifImageCopy(ptr noundef %1, ptr noundef %8, i32 noundef 255) #13
  br label %10

10:                                               ; preds = %4, %2, %6
  %.0 = phi i32 [ %9, %6 ], [ %3, %2 ], [ %5, %4 ]
  ret i32 %.0
}